; Function Attrs: mustprogress nofree nounwind willreturn uwtable
define dso_local void @_ZN4absl7uint128C2Ed(ptr noundef nonnull writeonly align 16 captures(none) dereferenceable(16) initializes((0, 16)) %0, double noundef %1) unnamed_addr #0 align 2 {
  %3 = tail call double @ldexp(double noundef 1.000000e+00, i32 noundef 64) #12, !tbaa !4
  %4 = fcmp ult double %1, %3
  br i1 %4, label %_ZN4absl12_GLOBAL__N_120MakeUint128FromFloatIdEENS_7uint128ET_.exit, label %5

5:                                                ; preds = %2
  %6 = tail call double @ldexp(double noundef %1, i32 noundef -64) #12, !tbaa !4
  %7 = fptoui double %6 to i64
  %8 = uitofp i64 %7 to double
  %9 = tail call double @ldexp(double noundef %8, i32 noundef 64) #12, !tbaa !4
  %10 = fsub double %1, %9
  br label %_ZN4absl12_GLOBAL__N_120MakeUint128FromFloatIdEENS_7uint128ET_.exit

_ZN4absl12_GLOBAL__N_120MakeUint128FromFloatIdEENS_7uint128ET_.exit: ; preds = %2, %5
  %.pn11.in.i = phi double [ %10, %5 ], [ %1, %2 ]
  %.pn9.i = phi i64 [ %7, %5 ], [ 0, %2 ]
  %.pn11.i = fptoui double %.pn11.in.i to i64
  store i64 %.pn11.i, ptr %0, align 16, !tbaa !8
  %.sroa.4.0..sroa_idx = getelementptr inbounds nuw i8, ptr %0, i64 8
  store i64 %.pn9.i, ptr %.sroa.4.0..sroa_idx, align 8, !tbaa !8
  ret void
}